target datalayout = "e-m:e-p270:32:32-p271:32:32-p272:64:64-i64:64-i128:128-f80:128-n8:16:32:64-S128"
target triple = "x86_64-pc-linux-gnu"

%struct.LLSModel = type { [36 x [36 x double]], [32 x [32 x double]], [32 x double], i32, ptr, ptr, [8 x i8] }

; Function Attrs: nounwind uwtable
define internal void @update_lls(ptr noundef %0, ptr noundef %1) #0 {
  %3 = alloca ptr, align 8
  %4 = alloca ptr, align 8
  %5 = alloca i32, align 4
  %6 = alloca i32, align 4
  store ptr %0, ptr %3, align 8, !tbaa !4
  store ptr %1, ptr %4, align 8, !tbaa !13
  call void @llvm.lifetime.start.p0(i64 4, ptr %5) #6
  call void @llvm.lifetime.start.p0(i64 4, ptr %6) #6
  store i32 0, ptr %5, align 4, !tbaa !18
  br label %7

7:                                                ; preds = %46, %2
  %8 = load i32, ptr %5, align 4, !tbaa !18
  %9 = load ptr, ptr %3, align 8, !tbaa !4
  %10 = getelementptr inbounds nuw %struct.LLSModel, ptr %9, i32 0, i32 3
  %11 = load i32, ptr %10, align 16, !tbaa !15
  %12 = icmp sle i32 %8, %11
  br i1 %12, label %13, label %49

13:                                               ; preds = %7
  %14 = load i32, ptr %5, align 4, !tbaa !18
  store i32 %14, ptr %6, align 4, !tbaa !18
  br label %15

15:                                               ; preds = %42, %13
  %16 = load i32, ptr %6, align 4, !tbaa !18
  %17 = load ptr, ptr %3, align 8, !tbaa !4
  %18 = getelementptr inbounds nuw %struct.LLSModel, ptr %17, i32 0, i32 3
  %19 = load i32, ptr %18, align 16, !tbaa !15
  %20 = icmp sle i32 %16, %19
  br i1 %20, label %21, label %45

21:                                               ; preds = %15
  %22 = load ptr, ptr %4, align 8, !tbaa !13
  %23 = load i32, ptr %5, align 4, !tbaa !18
  %24 = sext i32 %23 to i64
  %25 = getelementptr inbounds double, ptr %22, i64 %24
  %26 = load double, ptr %25, align 8, !tbaa !9
  %27 = load ptr, ptr %4, align 8, !tbaa !13
  %28 = load i32, ptr %6, align 4, !tbaa !18
  %29 = sext i32 %28 to i64
  %30 = getelementptr inbounds double, ptr %27, i64 %29
  %31 = load double, ptr %30, align 8, !tbaa !9
  %32 = load ptr, ptr %3, align 8, !tbaa !4
  %33 = getelementptr inbounds nuw %struct.LLSModel, ptr %32, i32 0, i32 0
  %34 = load i32, ptr %5, align 4, !tbaa !18
  %35 = sext i32 %34 to i64
  %36 = getelementptr inbounds [36 x [36 x double]], ptr %33, i64 0, i64 %35
  %37 = load i32, ptr %6, align 4, !tbaa !18
  %38 = sext i32 %37 to i64
  %39 = getelementptr inbounds [36 x double], ptr %36, i64 0, i64 %38
  %40 = load double, ptr %39, align 8, !tbaa !9
  %41 = call nsz double @llvm.fmuladd.f64(double %26, double %31, double %40)
  store double %41, ptr %39, align 8, !tbaa !9
  br label %42

42:                                               ; preds = %21
  %43 = load i32, ptr %6, align 4, !tbaa !18
  %44 = add nsw i32 %43, 1
  store i32 %44, ptr %6, align 4, !tbaa !18
  br label %15, !llvm.loop !32

45:                                               ; preds = %15
  br label %46

46:                                               ; preds = %45
  %47 = load i32, ptr %5, align 4, !tbaa !18
  %48 = add nsw i32 %47, 1
  store i32 %48, ptr %5, align 4, !tbaa !18
  br label %7, !llvm.loop !33

49:                                               ; preds = %7
  call void @llvm.lifetime.end.p0(i64 4, ptr %6) #6
  call void @llvm.lifetime.end.p0(i64 4, ptr %5) #6
  ret void
}