; Function Attrs: nofree norecurse nosync nounwind memory(argmem: readwrite) uwtable
define internal void @update_lls(ptr noundef captures(none) %0, ptr noundef readonly captures(none) %1) #0 {
  %3 = getelementptr inbounds nuw i8, ptr %0, i64 18816
  %4 = load i32, ptr %3, align 16, !tbaa !4
  %.not16 = icmp slt i32 %4, 0
  br i1 %.not16, label %._crit_edge, label %.preheader.preheader

.preheader.preheader:                             ; preds = %2
  %5 = add nuw i32 %4, 1
  %wide.trip.count22 = zext i32 %5 to i64
  br label %.preheader

.preheader:                                       ; preds = %.preheader.preheader, %14
  %indvars.iv = phi i64 [ 0, %.preheader.preheader ], [ %indvars.iv.next, %14 ]
  %6 = getelementptr inbounds nuw double, ptr %1, i64 %indvars.iv
  br label %7

7:                                                ; preds = %.preheader, %7
  %indvars.iv18 = phi i64 [ %indvars.iv, %.preheader ], [ %indvars.iv.next19, %7 ]
  %8 = load double, ptr %6, align 8, !tbaa !10
  %9 = getelementptr inbounds nuw double, ptr %1, i64 %indvars.iv18
  %10 = load double, ptr %9, align 8, !tbaa !10
  %11 = getelementptr inbounds nuw [36 x [36 x double]], ptr %0, i64 0, i64 %indvars.iv, i64 %indvars.iv18
  %12 = load double, ptr %11, align 8, !tbaa !10
  %13 = tail call nsz double @llvm.fmuladd.f64(double %8, double %10, double %12)
  store double %13, ptr %11, align 8, !tbaa !10
  %indvars.iv.next19 = add nuw nsw i64 %indvars.iv18, 1
  %exitcond.not = icmp eq i64 %indvars.iv.next19, %wide.trip.count22
  br i1 %exitcond.not, label %14, label %7, !llvm.loop !25

14:                                               ; preds = %7
  %indvars.iv.next = add nuw nsw i64 %indvars.iv, 1
  %exitcond23.not = icmp eq i64 %indvars.iv.next, %wide.trip.count22
  br i1 %exitcond23.not, label %._crit_edge, label %.preheader, !llvm.loop !26

._crit_edge:                                      ; preds = %14, %2
  ret void
}